target datalayout = "e-m:e-p270:32:32-p271:32:32-p272:64:64-i64:64-i128:128-f80:128-n8:16:32:64-S128"
target triple = "x86_64-pc-linux-gnu"

%struct._descriptorspec_item = type { i32, i32, i32, i32, i32 }

@.str.24 = private unnamed_addr constant [39 x i8] c"Failed to dup() for descriptor %ld: %s\00", align 1
@.str.39 = private unnamed_addr constant [32 x i8] c"Redirection target %d not found\00", align 1

; Function Attrs: nounwind uwtable
define internal i32 @dup_proc_descriptor(i32 noundef %0, ptr noundef %1, i64 noundef %2) #0 {
  %4 = alloca i32, align 4
  %5 = alloca i32, align 4
  %6 = alloca ptr, align 8
  %7 = alloca i64, align 8
  store i32 %0, ptr %5, align 4, !tbaa !4
  store ptr %1, ptr %6, align 8, !tbaa !79
  store i64 %2, ptr %7, align 8, !tbaa !37
  %8 = load i32, ptr %5, align 4, !tbaa !4
  %9 = call i32 @dup(i32 noundef %8) #14
  %10 = load ptr, ptr %6, align 8, !tbaa !79
  store i32 %9, ptr %10, align 4, !tbaa !4
  %11 = load ptr, ptr %6, align 8, !tbaa !79
  %12 = load i32, ptr %11, align 4, !tbaa !4
  %13 = icmp slt i32 %12, 0
  br i1 %13, label %14, label %19

14:                                               ; preds = %3
  %15 = load i64, ptr %7, align 8, !tbaa !37
  %16 = call ptr @__errno_location() #15
  %17 = load i32, ptr %16, align 4, !tbaa !4
  %18 = call ptr @strerror(i32 noundef %17) #14
  call void (ptr, i32, ptr, ...) @php_error_docref(ptr noundef null, i32 noundef 2, ptr noundef @.str.24, i64 noundef %15, ptr noundef %18)
  store i32 -1, ptr %4, align 4
  br label %20

19:                                               ; preds = %3
  store i32 0, ptr %4, align 4
  br label %20

20:                                               ; preds = %19, %14
  %21 = load i32, ptr %4, align 4
  ret i32 %21
}

; Function Attrs: nounwind uwtable
define internal i32 @redirect_proc_descriptor(ptr noundef %0, i32 noundef %1, ptr noundef %2, i32 noundef %3, i32 noundef %4) #0 {
  %6 = alloca i32, align 4
  %7 = alloca ptr, align 8
  %8 = alloca i32, align 4
  %9 = alloca ptr, align 8
  %10 = alloca i32, align 4
  %11 = alloca i32, align 4
  %12 = alloca i32, align 4
  %13 = alloca i32, align 4
  %14 = alloca i32, align 4
  store ptr %0, ptr %7, align 8, !tbaa !82
  store i32 %1, ptr %8, align 4, !tbaa !4
  store ptr %2, ptr %9, align 8, !tbaa !82
  store i32 %3, ptr %10, align 4, !tbaa !4
  store i32 %4, ptr %11, align 4, !tbaa !4
  call void @llvm.lifetime.start.p0(i64 4, ptr %12) #14
  store i32 -1, ptr %12, align 4, !tbaa !4
  call void @llvm.lifetime.start.p0(i64 4, ptr %13) #14
  store i32 0, ptr %13, align 4, !tbaa !4
  br label %15

15:                                               ; preds = %37, %5
  %16 = load i32, ptr %13, align 4, !tbaa !4
  %17 = load i32, ptr %10, align 4, !tbaa !4
  %18 = icmp slt i32 %16, %17
  br i1 %18, label %20, label %19

19:                                               ; preds = %15
  store i32 2, ptr %14, align 4
  br label %40

20:                                               ; preds = %15
  %21 = load ptr, ptr %9, align 8, !tbaa !82
  %22 = load i32, ptr %13, align 4, !tbaa !4
  %23 = sext i32 %22 to i64
  %24 = getelementptr inbounds %struct._descriptorspec_item, ptr %21, i64 %23
  %25 = getelementptr inbounds nuw %struct._descriptorspec_item, ptr %24, i32 0, i32 0
  %26 = load i32, ptr %25, align 4, !tbaa !92
  %27 = load i32, ptr %8, align 4, !tbaa !4
  %28 = icmp eq i32 %26, %27
  br i1 %28, label %29, label %36

29:                                               ; preds = %20
  %30 = load ptr, ptr %9, align 8, !tbaa !82
  %31 = load i32, ptr %13, align 4, !tbaa !4
  %32 = sext i32 %31 to i64
  %33 = getelementptr inbounds %struct._descriptorspec_item, ptr %30, i64 %32
  %34 = getelementptr inbounds nuw %struct._descriptorspec_item, ptr %33, i32 0, i32 2
  %35 = load i32, ptr %34, align 4, !tbaa !97
  store i32 %35, ptr %12, align 4, !tbaa !4
  store i32 2, ptr %14, align 4
  br label %40

36:                                               ; preds = %20
  br label %37

37:                                               ; preds = %36
  %38 = load i32, ptr %13, align 4, !tbaa !4
  %39 = add nsw i32 %38, 1
  store i32 %39, ptr %13, align 4, !tbaa !4
  br label %15

40:                                               ; preds = %29, %19
  call void @llvm.lifetime.end.p0(i64 4, ptr %13) #14
  br label %41

41:                                               ; preds = %40
  %42 = load i32, ptr %12, align 4, !tbaa !4
  %43 = icmp eq i32 %42, -1
  br i1 %43, label %44, label %54

44:                                               ; preds = %41
  %45 = load i32, ptr %8, align 4, !tbaa !4
  %46 = icmp slt i32 %45, 0
  br i1 %46, label %50, label %47

47:                                               ; preds = %44
  %48 = load i32, ptr %8, align 4, !tbaa !4
  %49 = icmp sgt i32 %48, 2
  br i1 %49, label %50, label %52

50:                                               ; preds = %47, %44
  %51 = load i32, ptr %8, align 4, !tbaa !4
  call void (ptr, i32, ptr, ...) @php_error_docref(ptr noundef null, i32 noundef 2, ptr noundef @.str.39, i32 noundef %51)
  store i32 -1, ptr %6, align 4
  store i32 1, ptr %14, align 4
  br label %61

52:                                               ; preds = %47
  %53 = load i32, ptr %8, align 4, !tbaa !4
  store i32 %53, ptr %12, align 4, !tbaa !4
  br label %54

54:                                               ; preds = %52, %41
  %55 = load i32, ptr %12, align 4, !tbaa !4
  %56 = load ptr, ptr %7, align 8, !tbaa !82
  %57 = getelementptr inbounds nuw %struct._descriptorspec_item, ptr %56, i32 0, i32 2
  %58 = load i32, ptr %11, align 4, !tbaa !4
  %59 = sext i32 %58 to i64
  %60 = call i32 @dup_proc_descriptor(i32 noundef %55, ptr noundef %57, i64 noundef %59)
  store i32 %60, ptr %6, align 4
  store i32 1, ptr %14, align 4
  br label %61

61:                                               ; preds = %54, %50
  call void @llvm.lifetime.end.p0(i64 4, ptr %12) #14
  %62 = load i32, ptr %6, align 4
  ret i32 %62
}