; Function Attrs: nounwind uwtable
define internal fastcc range(i32 -1, 1) i32 @redirect_proc_descriptor(ptr noundef writeonly captures(none) %0, i32 noundef %1, ptr noundef readonly captures(none) %2, i32 noundef %3, i32 noundef %4) unnamed_addr #0 {
  %6 = icmp sgt i32 %3, 0
  br i1 %6, label %.lr.ph.preheader, label %.thread

.lr.ph.preheader:                                 ; preds = %5
  %wide.trip.count = zext nneg i32 %3 to i64
  br label %.lr.ph

7:                                                ; preds = %.lr.ph
  %indvars.iv.next = add nuw nsw i64 %indvars.iv, 1
  %exitcond.not = icmp eq i64 %indvars.iv.next, %wide.trip.count
  br i1 %exitcond.not, label %.thread, label %.lr.ph

.lr.ph:                                           ; preds = %.lr.ph.preheader, %7
  %indvars.iv = phi i64 [ 0, %.lr.ph.preheader ], [ %indvars.iv.next, %7 ]
  %8 = getelementptr inbounds nuw %struct._descriptorspec_item, ptr %2, i64 %indvars.iv
  %9 = load i32, ptr %8, align 4, !tbaa !88
  %10 = icmp eq i32 %9, %1
  br i1 %10, label %11, label %7

11:                                               ; preds = %.lr.ph
  %12 = getelementptr inbounds nuw i8, ptr %8, i64 8
  %13 = load i32, ptr %12, align 4, !tbaa !91
  %14 = icmp eq i32 %13, -1
  br i1 %14, label %.thread, label %16

.thread:                                          ; preds = %7, %5, %11
  %or.cond = icmp ugt i32 %1, 2
  br i1 %or.cond, label %15, label %16

15:                                               ; preds = %.thread
  tail call void (ptr, i32, ptr, ...) @php_error_docref(ptr noundef null, i32 noundef 2, ptr noundef nonnull @.str.39, i32 noundef %1) #13
  br label %dup_proc_descriptor.exit

16:                                               ; preds = %.thread, %11
  %.1 = phi i32 [ %13, %11 ], [ %1, %.thread ]
  %17 = getelementptr inbounds nuw i8, ptr %0, i64 8
  %18 = tail call i32 @dup(i32 noundef %.1) #13
  store i32 %18, ptr %17, align 4, !tbaa !4
  %19 = icmp slt i32 %18, 0
  br i1 %19, label %20, label %dup_proc_descriptor.exit

20:                                               ; preds = %16
  %21 = sext i32 %4 to i64
  %22 = tail call ptr @__errno_location() #14
  %23 = load i32, ptr %22, align 4, !tbaa !4
  %24 = tail call ptr @strerror(i32 noundef %23) #13
  tail call void (ptr, i32, ptr, ...) @php_error_docref(ptr noundef null, i32 noundef 2, ptr noundef nonnull @.str.24, i64 noundef range(i64 -2147483648, 2147483648) %21, ptr noundef %24) #13
  br label %dup_proc_descriptor.exit

dup_proc_descriptor.exit:                         ; preds = %20, %16, %15
  %.018 = phi i32 [ -1, %15 ], [ -1, %20 ], [ 0, %16 ]
  ret i32 %.018
}